target datalayout = "e-m:e-p270:32:32-p271:32:32-p272:64:64-i64:64-i128:128-f80:128-n8:16:32:64-S128"
target triple = "x86_64-pc-linux-gnu"

@.str.290 = private unnamed_addr constant [28 x i8] c"pdf_getdict: bad length %d\0A\00", align 1
@.str.291 = private unnamed_addr constant [35 x i8] c"pdf_getdict: %s not found in dict\0A\00", align 1
@.str.292 = private unnamed_addr constant [36 x i8] c"pdf_getdict: %s is invalid in dict\0A\00", align 1

; Function Attrs: nounwind uwtable
define internal ptr @pdf_getdict(ptr noundef %0, ptr noundef %1, ptr noundef %2) #0 {
  %4 = alloca ptr, align 8
  %5 = alloca ptr, align 8
  %6 = alloca ptr, align 8
  %7 = alloca ptr, align 8
  %8 = alloca ptr, align 8
  store ptr %0, ptr %5, align 8
  store ptr %1, ptr %6, align 8
  store ptr %2, ptr %7, align 8
  %9 = load ptr, ptr %6, align 8
  %10 = load i32, ptr %9, align 4
  %11 = icmp sle i32 %10, 0
  br i1 %11, label %12, label %15

12:                                               ; preds = %3
  %13 = load ptr, ptr %6, align 8
  %14 = load i32, ptr %13, align 4
  call void (ptr, ...) @cli_dbgmsg(ptr noundef @.str.290, i32 noundef %14)
  store ptr null, ptr %4, align 8
  br label %91

15:                                               ; preds = %3
  %16 = load ptr, ptr %5, align 8
  %17 = icmp ne ptr %16, null
  br i1 %17, label %19, label %18

18:                                               ; preds = %15
  store ptr null, ptr %4, align 8
  br label %91

19:                                               ; preds = %15
  %20 = load ptr, ptr %5, align 8
  %21 = load ptr, ptr %6, align 8
  %22 = load i32, ptr %21, align 4
  %23 = sext i32 %22 to i64
  %24 = load ptr, ptr %7, align 8
  %25 = load ptr, ptr %7, align 8
  %26 = call i64 @strlen(ptr noundef %25) #13
  %27 = call ptr @cli_memstr(ptr noundef %20, i64 noundef %23, ptr noundef %24, i64 noundef %26)
  store ptr %27, ptr %8, align 8
  %28 = load ptr, ptr %8, align 8
  %29 = icmp ne ptr %28, null
  br i1 %29, label %32, label %30

30:                                               ; preds = %19
  %31 = load ptr, ptr %7, align 8
  call void (ptr, ...) @cli_dbgmsg(ptr noundef @.str.291, ptr noundef %31)
  store ptr null, ptr %4, align 8
  br label %91

32:                                               ; preds = %19
  %33 = load ptr, ptr %8, align 8
  %34 = load ptr, ptr %5, align 8
  %35 = ptrtoint ptr %33 to i64
  %36 = ptrtoint ptr %34 to i64
  %37 = sub i64 %35, %36
  %38 = load ptr, ptr %6, align 8
  %39 = load i32, ptr %38, align 4
  %40 = sext i32 %39 to i64
  %41 = sub nsw i64 %40, %37
  %42 = trunc i64 %41 to i32
  store i32 %42, ptr %38, align 4
  %43 = load ptr, ptr %8, align 8
  store ptr %43, ptr %5, align 8
  %44 = load ptr, ptr %5, align 8
  %45 = getelementptr inbounds i8, ptr %44, i64 1
  %46 = load ptr, ptr %6, align 8
  %47 = load i32, ptr %46, align 4
  %48 = sub nsw i32 %47, 1
  %49 = sext i32 %48 to i64
  %50 = call ptr @pdf_nextobject(ptr noundef %45, i64 noundef %49)
  store ptr %50, ptr %8, align 8
  %51 = load ptr, ptr %8, align 8
  %52 = icmp ne ptr %51, null
  br i1 %52, label %55, label %53

53:                                               ; preds = %32
  %54 = load ptr, ptr %7, align 8
  call void (ptr, ...) @cli_dbgmsg(ptr noundef @.str.292, ptr noundef %54)
  store ptr null, ptr %4, align 8
  br label %91

55:                                               ; preds = %32
  br label %56

56:                                               ; preds = %76, %55
  %57 = load ptr, ptr %8, align 8
  %58 = load ptr, ptr %5, align 8
  %59 = icmp ugt ptr %57, %58
  br i1 %59, label %60, label %74

60:                                               ; preds = %56
  %61 = load ptr, ptr %8, align 8
  %62 = getelementptr inbounds i8, ptr %61, i64 -1
  %63 = load i8, ptr %62, align 1
  %64 = sext i8 %63 to i32
  %65 = icmp eq i32 %64, 60
  br i1 %65, label %72, label %66

66:                                               ; preds = %60
  %67 = load ptr, ptr %8, align 8
  %68 = getelementptr inbounds i8, ptr %67, i64 -1
  %69 = load i8, ptr %68, align 1
  %70 = sext i8 %69 to i32
  %71 = icmp eq i32 %70, 10
  br label %72

72:                                               ; preds = %66, %60
  %73 = phi i1 [ true, %60 ], [ %71, %66 ]
  br label %74

74:                                               ; preds = %72, %56
  %75 = phi i1 [ false, %56 ], [ %73, %72 ]
  br i1 %75, label %76, label %79

76:                                               ; preds = %74
  %77 = load ptr, ptr %8, align 8
  %78 = getelementptr inbounds i8, ptr %77, i32 -1
  store ptr %78, ptr %8, align 8
  br label %56

79:                                               ; preds = %74
  %80 = load ptr, ptr %8, align 8
  %81 = load ptr, ptr %5, align 8
  %82 = ptrtoint ptr %80 to i64
  %83 = ptrtoint ptr %81 to i64
  %84 = sub i64 %82, %83
  %85 = load ptr, ptr %6, align 8
  %86 = load i32, ptr %85, align 4
  %87 = sext i32 %86 to i64
  %88 = sub nsw i64 %87, %84
  %89 = trunc i64 %88 to i32
  store i32 %89, ptr %85, align 4
  %90 = load ptr, ptr %8, align 8
  store ptr %90, ptr %4, align 8
  br label %91

91:                                               ; preds = %79, %53, %30, %18, %12
  %92 = load ptr, ptr %4, align 8
  ret ptr %92
}