; Function Attrs: nounwind uwtable
define internal fastcc ptr @pdf_getdict(ptr noundef %0, ptr nocapture noundef %1, ptr noundef %2) unnamed_addr #0 {
  %4 = load i32, ptr %1, align 4
  %5 = icmp slt i32 %4, 1
  br i1 %5, label %6, label %7

6:                                                ; preds = %3
  tail call void (ptr, ...) @cli_dbgmsg(ptr noundef nonnull @.str.290, i32 noundef %4) #22
  br label %32

7:                                                ; preds = %3
  %.not = icmp eq ptr %0, null
  br i1 %.not, label %32, label %8

8:                                                ; preds = %7
  %9 = zext nneg i32 %4 to i64
  %10 = tail call i64 @strlen(ptr noundef nonnull dereferenceable(1) %2) #26
  %11 = tail call ptr @cli_memstr(ptr noundef nonnull %0, i64 noundef %9, ptr noundef %2, i64 noundef %10) #22
  %12 = ptrtoint ptr %11 to i64
  %.not35 = icmp eq ptr %11, null
  br i1 %.not35, label %13, label %14

13:                                               ; preds = %8
  tail call void (ptr, ...) @cli_dbgmsg(ptr noundef nonnull @.str.291, ptr noundef %2) #22
  br label %32

14:                                               ; preds = %8
  %15 = ptrtoint ptr %0 to i64
  %.neg = sub i64 %15, %12
  %16 = load i32, ptr %1, align 4
  %17 = trunc i64 %.neg to i32
  %18 = add i32 %16, %17
  store i32 %18, ptr %1, align 4
  %19 = getelementptr inbounds i8, ptr %11, i64 1
  %20 = add nsw i32 %18, -1
  %21 = sext i32 %20 to i64
  %22 = tail call fastcc ptr @pdf_nextobject(ptr noundef nonnull %19, i64 noundef %21)
  %23 = ptrtoint ptr %22 to i64
  %.not36 = icmp eq ptr %22, null
  br i1 %.not36, label %26, label %.preheader

.preheader:                                       ; preds = %14
  %24 = icmp ugt ptr %22, %11
  br i1 %24, label %.lr.ph.preheader, label %.critedge

.lr.ph.preheader:                                 ; preds = %.preheader
  %25 = sub i64 %12, %23
  %scevgep = getelementptr i8, ptr %22, i64 %25
  br label %.lr.ph

26:                                               ; preds = %14
  tail call void (ptr, ...) @cli_dbgmsg(ptr noundef nonnull @.str.292, ptr noundef %2) #22
  br label %32

.lr.ph:                                           ; preds = %.lr.ph.preheader, %.critedge2
  %.038 = phi ptr [ %27, %.critedge2 ], [ %22, %.lr.ph.preheader ]
  %27 = getelementptr inbounds i8, ptr %.038, i64 -1
  %28 = load i8, ptr %27, align 1
  switch i8 %28, label %.critedge.loopexit [
    i8 60, label %.critedge2
    i8 10, label %.critedge2
  ]

.critedge2:                                       ; preds = %.lr.ph, %.lr.ph
  %29 = icmp ugt ptr %27, %11
  br i1 %29, label %.lr.ph, label %.critedge.loopexit

.critedge.loopexit:                               ; preds = %.lr.ph, %.critedge2
  %.0.lcssa.ph = phi ptr [ %scevgep, %.critedge2 ], [ %.038, %.lr.ph ]
  %.pre = ptrtoint ptr %.0.lcssa.ph to i64
  br label %.critedge

.critedge:                                        ; preds = %.critedge.loopexit, %.preheader
  %.pre-phi = phi i64 [ %.pre, %.critedge.loopexit ], [ %23, %.preheader ]
  %.0.lcssa = phi ptr [ %.0.lcssa.ph, %.critedge.loopexit ], [ %22, %.preheader ]
  %.neg37 = sub i64 %12, %.pre-phi
  %30 = trunc i64 %.neg37 to i32
  %31 = add i32 %18, %30
  store i32 %31, ptr %1, align 4
  br label %32

32:                                               ; preds = %7, %.critedge, %26, %13, %6
  %.029 = phi ptr [ null, %6 ], [ %.0.lcssa, %.critedge ], [ null, %26 ], [ null, %13 ], [ null, %7 ]
  ret ptr %.029
}